(dp0
S'resnet_model/batch_normalization_11/moving_mean'
p1
g1
sS'resnet_model/conv2d_5/kernel'
p2
g2
sS'resnet_model/batch_normalization_8/gamma'
p3
g3
sS'resnet_model/batch_normalization_5/gamma'
p4
g4
sS'resnet_model/batch_normalization_14/moving_variance'
p5
g5
sS'resnet_model/batch_normalization_13/beta'
p6
g6
sS'resnet_model/batch_normalization_13/gamma'
p7
g7
sS'resnet_model/batch_normalization_7/moving_variance'
p8
g8
sS'resnet_model/conv2d_12/kernel'
p9
g9
sS'resnet_model/conv2d_11/kernel'
p10
g10
sS'resnet_model/batch_normalization_10/moving_mean'
p11
g11
sS'resnet_model/batch_normalization_3/gamma'
p12
g12
sS'resnet_model/batch_normalization_6/beta'
p13
g13
sS'resnet_model/conv2d_8/kernel'
p14
g14
sS'resnet_model/batch_normalization_12/moving_variance'
p15
g15
sS'resnet_model/batch_normalization_1/beta'
p16
g16
sS'resnet_model/batch_normalization_13/moving_mean'
p17
g17
sS'resnet_model/batch_normalization_2/gamma'
p18
g18
sS'resnet_model/batch_normalization_12/moving_mean'
p19
g19
sS'resnet_model/batch_normalization_9/moving_mean'
p20
g20
sS'resnet_model/conv2d_10/kernel'
p21
g21
sS'resnet_model/conv2d_18/kernel'
p22
g22
sS'resnet_model/batch_normalization/gamma'
p23
g23
sS'resnet_model/batch_normalization_10/beta'
p24
g24
sS'resnet_model/conv2d_9/kernel'
p25
g25
sS'resnet_model/conv2d_6/kernel'
p26
g26
sS'resnet_model/batch_normalization_4/beta'
p27
g27
sS'resnet_model/batch_normalization_9/moving_variance'
p28
g28
sS'resnet_model/batch_normalization_16/gamma'
p29
g29
sS'resnet_model/batch_normalization_16/beta'
p30
g30
sS'resnet_model/batch_normalization_14/gamma'
p31
g31
sS'resnet_model/conv2d_13/kernel'
p32
g32
sS'resnet_model/conv2d_20/kernel'
p33
g33
sS'resnet_model/batch_normalization_6/gamma'
p34
g34
sS'resnet_model/batch_normalization_1/gamma'
p35
g35
sS'resnet_model/batch_normalization_11/gamma'
p36
g36
sS'resnet_model/conv2d_15/kernel'
p37
g37
sS'resnet_model/batch_normalization_15/moving_mean'
p38
g38
sS'resnet_model/batch_normalization_4/moving_variance'
p39
g39
sS'resnet_model/batch_normalization_8/beta'
p40
g40
sS'resnet_model/batch_normalization_2/beta'
p41
g41
sS'resnet_model/batch_normalization_8/moving_variance'
p42
g42
sS'resnet_model/batch_normalization/beta'
p43
g43
sS'resnet_model/batch_normalization_2/moving_mean'
p44
g44
sS'resnet_model/conv2d_1/kernel'
p45
g45
sS'resnet_model/batch_normalization_5/moving_variance'
p46
g46
sS'resnet_model/batch_normalization_15/moving_variance'
p47
g47
sS'resnet_model/batch_normalization_1/moving_mean'
p48
g48
sS'resnet_model/batch_normalization_16/moving_mean'
p49
g49
sS'resnet_model/conv2d_4/kernel'
p50
g50
sS'resnet_model/batch_normalization_5/beta'
p51
g51
sS'resnet_model/batch_normalization_7/gamma'
p52
g52
sS'resnet_model/batch_normalization_10/moving_variance'
p53
g53
sS'resnet_model/batch_normalization_14/moving_mean'
p54
g54
sS'resnet_model/batch_normalization_15/beta'
p55
g55
sS'resnet_model/batch_normalization_12/beta'
p56
g56
sS'resnet_model/batch_normalization_7/moving_mean'
p57
g57
sS'resnet_model/batch_normalization/moving_variance'
p58
g58
sS'resnet_model/conv2d_16/kernel'
p59
g59
sS'resnet_model/batch_normalization_5/moving_mean'
p60
g60
sS'resnet_model/dense/bias'
p61
g61
sS'resnet_model/batch_normalization_3/beta'
p62
g62
sS'resnet_model/batch_normalization_9/beta'
p63
g63
sS'resnet_model/batch_normalization_4/moving_mean'
p64
g64
sS'resnet_model/batch_normalization_1/moving_variance'
p65
g65
sS'resnet_model/batch_normalization_4/gamma'
p66
g66
sS'resnet_model/conv2d_19/kernel'
p67
g67
sS'resnet_model/batch_normalization_8/moving_mean'
p68
g68
sS'resnet_model/batch_normalization/moving_mean'
p69
g69
sS'resnet_model/batch_normalization_6/moving_variance'
p70
g70
sS'resnet_model/batch_normalization_2/moving_variance'
p71
g71
sS'resnet_model/conv2d_17/kernel'
p72
g72
sS'resnet_model/batch_normalization_11/moving_variance'
p73
g73
sS'resnet_model/conv2d_7/kernel'
p74
g74
sS'resnet_model/batch_normalization_13/moving_variance'
p75
g75
sS'resnet_model/batch_normalization_15/gamma'
p76
g76
sS'global_step'
p77
g77
sS'resnet_model/batch_normalization_3/moving_mean'
p78
g78
sS'resnet_model/conv2d_14/kernel'
p79
g79
sS'resnet_model/dense/kernel'
p80
g80
sS'resnet_model/batch_normalization_3/moving_variance'
p81
g81
sS'resnet_model/batch_normalization_9/gamma'
p82
g82
sS'resnet_model/conv2d_3/kernel'
p83
g83
sS'resnet_model/batch_normalization_7/beta'
p84
g84
sS'resnet_model/conv2d_2/kernel'
p85
g85
sS'resnet_model/batch_normalization_16/moving_variance'
p86
g86
sS'resnet_model/conv2d/kernel'
p87
g87
sS'resnet_model/batch_normalization_6/moving_mean'
p88
g88
sS'resnet_model/batch_normalization_11/beta'
p89
g89
sS'resnet_model/batch_normalization_14/beta'
p90
g90
sS'resnet_model/batch_normalization_10/gamma'
p91
g91
sS'resnet_model/batch_normalization_12/gamma'
p92
g92
s.